target datalayout = "e-m:e-p270:32:32-p271:32:32-p272:64:64-i64:64-i128:128-f80:128-n8:16:32:64-S128"
target triple = "x86_64-pc-linux-gnu"

%"class.ODDLParser::Value" = type { i32, i64, ptr, ptr }

; Function Attrs: inlinehint mustprogress nounwind uwtable
define linkonce_odr hidden noundef zeroext i1 @_ZN10ODDLParser9isNewLineIcEEbT_(i8 noundef signext %0) #12 comdat {
  %2 = alloca i8, align 1
  store i8 %0, ptr %2, align 1
  %3 = load i8, ptr %2, align 1
  %4 = sext i8 %3 to i32
  %5 = icmp eq i32 10, %4
  br i1 %5, label %10, label %6

6:                                                ; preds = %1
  %7 = load i8, ptr %2, align 1
  %8 = sext i8 %7 to i32
  %9 = icmp eq i32 13, %8
  br label %10

10:                                               ; preds = %6, %1
  %11 = phi i1 [ true, %1 ], [ %9, %6 ]
  ret i1 %11
}

; Function Attrs: inlinehint mustprogress nounwind uwtable
define linkonce_odr hidden noundef zeroext i1 @_ZN10ODDLParser7isSpaceIcEEbT_(i8 noundef signext %0) #12 comdat {
  %2 = alloca i8, align 1
  store i8 %0, ptr %2, align 1
  %3 = load i8, ptr %2, align 1
  %4 = sext i8 %3 to i32
  %5 = icmp eq i32 32, %4
  br i1 %5, label %10, label %6

6:                                                ; preds = %1
  %7 = load i8, ptr %2, align 1
  %8 = sext i8 %7 to i32
  %9 = icmp eq i32 9, %8
  br label %10

10:                                               ; preds = %6, %1
  %11 = phi i1 [ true, %1 ], [ %9, %6 ]
  ret i1 %11
}

; Function Attrs: inlinehint mustprogress uwtable
define linkonce_odr hidden noundef ptr @_ZN10ODDLParser16lookForNextTokenIcEEPT_S2_S2_(ptr noundef %0, ptr noundef %1) #10 comdat {
  %3 = alloca ptr, align 8
  %4 = alloca ptr, align 8
  store ptr %0, ptr %3, align 8
  store ptr %1, ptr %4, align 8
  br label %5

5:                                                ; preds = %26, %2
  %6 = load ptr, ptr %3, align 8
  %7 = load ptr, ptr %4, align 8
  %8 = icmp ne ptr %6, %7
  br i1 %8, label %9, label %24

9:                                                ; preds = %5
  %10 = load ptr, ptr %3, align 8
  %11 = load i8, ptr %10, align 1
  %12 = call noundef zeroext i1 @_ZN10ODDLParser7isSpaceIcEEbT_(i8 noundef signext %11)
  br i1 %12, label %22, label %13

13:                                               ; preds = %9
  %14 = load ptr, ptr %3, align 8
  %15 = load i8, ptr %14, align 1
  %16 = call noundef zeroext i1 @_ZN10ODDLParser9isNewLineIcEEbT_(i8 noundef signext %15)
  br i1 %16, label %22, label %17

17:                                               ; preds = %13
  %18 = load ptr, ptr %3, align 8
  %19 = load i8, ptr %18, align 1
  %20 = sext i8 %19 to i32
  %21 = icmp eq i32 44, %20
  br label %22

22:                                               ; preds = %17, %13, %9
  %23 = phi i1 [ true, %13 ], [ true, %9 ], [ %21, %17 ]
  br label %24

24:                                               ; preds = %22, %5
  %25 = phi i1 [ false, %5 ], [ %23, %22 ]
  br i1 %25, label %26, label %29

26:                                               ; preds = %24
  %27 = load ptr, ptr %3, align 8
  %28 = getelementptr inbounds nuw i8, ptr %27, i32 1
  store ptr %28, ptr %3, align 8
  br label %5, !llvm.loop !13

29:                                               ; preds = %24
  %30 = load ptr, ptr %3, align 8
  ret ptr %30
}

; Function Attrs: mustprogress uwtable
define hidden noundef ptr @_ZN10ODDLParser13OpenDDLParser18parseStringLiteralEPcS1_PPNS_5ValueE(ptr noundef %0, ptr noundef %1, ptr noundef %2) #6 align 2 {
  %4 = alloca ptr, align 8
  %5 = alloca ptr, align 8
  %6 = alloca ptr, align 8
  %7 = alloca ptr, align 8
  %8 = alloca i64, align 8
  %9 = alloca ptr, align 8
  store ptr %0, ptr %5, align 8
  store ptr %1, ptr %6, align 8
  store ptr %2, ptr %7, align 8
  %10 = load ptr, ptr %7, align 8
  store ptr null, ptr %10, align 8
  %11 = load ptr, ptr %5, align 8
  %12 = icmp eq ptr null, %11
  br i1 %12, label %17, label %13

13:                                               ; preds = %3
  %14 = load ptr, ptr %5, align 8
  %15 = load ptr, ptr %6, align 8
  %16 = icmp eq ptr %14, %15
  br i1 %16, label %17, label %19

17:                                               ; preds = %13, %3
  %18 = load ptr, ptr %5, align 8
  store ptr %18, ptr %4, align 8
  br label %70

19:                                               ; preds = %13
  %20 = load ptr, ptr %5, align 8
  %21 = load ptr, ptr %6, align 8
  %22 = call noundef ptr @_ZN10ODDLParser16lookForNextTokenIcEEPT_S2_S2_(ptr noundef %20, ptr noundef %21)
  store ptr %22, ptr %5, align 8
  call void @llvm.lifetime.start.p0(i64 8, ptr %8) #3
  store i64 0, ptr %8, align 8
  call void @llvm.lifetime.start.p0(i64 8, ptr %9) #3
  %23 = load ptr, ptr %5, align 8
  store ptr %23, ptr %9, align 8
  %24 = load ptr, ptr %9, align 8
  %25 = load i8, ptr %24, align 1
  %26 = sext i8 %25 to i32
  %27 = icmp eq i32 %26, 34
  br i1 %27, label %28, label %68

28:                                               ; preds = %19
  %29 = load ptr, ptr %9, align 8
  %30 = getelementptr inbounds nuw i8, ptr %29, i32 1
  store ptr %30, ptr %9, align 8
  %31 = load ptr, ptr %5, align 8
  %32 = getelementptr inbounds nuw i8, ptr %31, i32 1
  store ptr %32, ptr %5, align 8
  br label %33

33:                                               ; preds = %44, %28
  %34 = load ptr, ptr %5, align 8
  %35 = load i8, ptr %34, align 1
  %36 = sext i8 %35 to i32
  %37 = icmp ne i32 %36, 34
  br i1 %37, label %38, label %42

38:                                               ; preds = %33
  %39 = load ptr, ptr %5, align 8
  %40 = load ptr, ptr %6, align 8
  %41 = icmp ne ptr %39, %40
  br label %42

42:                                               ; preds = %38, %33
  %43 = phi i1 [ false, %33 ], [ %41, %38 ]
  br i1 %43, label %44, label %49

44:                                               ; preds = %42
  %45 = load ptr, ptr %5, align 8
  %46 = getelementptr inbounds nuw i8, ptr %45, i32 1
  store ptr %46, ptr %5, align 8
  %47 = load i64, ptr %8, align 8
  %48 = add i64 %47, 1
  store i64 %48, ptr %8, align 8
  br label %33, !llvm.loop !26

49:                                               ; preds = %42
  %50 = load i64, ptr %8, align 8
  %51 = call noundef ptr @_ZN10ODDLParser14ValueAllocator13allocPrimDataENS_5Value9ValueTypeEm(i32 noundef 12, i64 noundef %50)
  %52 = load ptr, ptr %7, align 8
  store ptr %51, ptr %52, align 8
  %53 = load ptr, ptr %7, align 8
  %54 = load ptr, ptr %53, align 8
  %55 = getelementptr inbounds nuw %"class.ODDLParser::Value", ptr %54, i32 0, i32 2
  %56 = load ptr, ptr %55, align 8
  %57 = load ptr, ptr %9, align 8
  %58 = load i64, ptr %8, align 8
  %59 = call ptr @strncpy(ptr noundef %56, ptr noundef %57, i64 noundef %58) #3
  %60 = load ptr, ptr %7, align 8
  %61 = load ptr, ptr %60, align 8
  %62 = getelementptr inbounds nuw %"class.ODDLParser::Value", ptr %61, i32 0, i32 2
  %63 = load ptr, ptr %62, align 8
  %64 = load i64, ptr %8, align 8
  %65 = getelementptr inbounds nuw i8, ptr %63, i64 %64
  store i8 0, ptr %65, align 1
  %66 = load ptr, ptr %5, align 8
  %67 = getelementptr inbounds nuw i8, ptr %66, i32 1
  store ptr %67, ptr %5, align 8
  br label %68

68:                                               ; preds = %49, %19
  %69 = load ptr, ptr %5, align 8
  store ptr %69, ptr %4, align 8
  call void @llvm.lifetime.end.p0(i64 8, ptr %9) #3
  call void @llvm.lifetime.end.p0(i64 8, ptr %8) #3
  br label %70

70:                                               ; preds = %68, %17
  %71 = load ptr, ptr %4, align 8
  ret ptr %71
}