; Function Attrs: mustprogress uwtable
define hidden noundef ptr @_ZN10ODDLParser13OpenDDLParser18parseStringLiteralEPcS1_PPNS_5ValueE(ptr noundef %0, ptr noundef %1, ptr noundef captures(none) initializes((0, 8)) %2) local_unnamed_addr #6 align 2 {
  store ptr null, ptr %2, align 8
  %4 = icmp eq ptr %0, null
  %5 = icmp eq ptr %0, %1
  %or.cond = or i1 %4, %5
  br i1 %or.cond, label %35, label %.lr.ph.preheader.i

.lr.ph.preheader.i:                               ; preds = %3
  %6 = ptrtoint ptr %1 to i64
  %7 = ptrtoint ptr %0 to i64
  %8 = sub i64 %6, %7
  %scevgep.i = getelementptr i8, ptr %0, i64 %8
  br label %.lr.ph.i

.lr.ph.i:                                         ; preds = %.critedge2.i, %.lr.ph.preheader.i
  %.010.i = phi ptr [ %10, %.critedge2.i ], [ %0, %.lr.ph.preheader.i ]
  %9 = load i8, ptr %.010.i, align 1
  switch i8 %9, label %_ZN10ODDLParser16lookForNextTokenIcEEPT_S2_S2_.exit [
    i8 32, label %.critedge2.i
    i8 9, label %.critedge2.i
    i8 13, label %.critedge2.i
    i8 10, label %.critedge2.i
    i8 44, label %.critedge2.i
  ]

.critedge2.i:                                     ; preds = %.lr.ph.i, %.lr.ph.i, %.lr.ph.i, %.lr.ph.i, %.lr.ph.i
  %10 = getelementptr inbounds nuw i8, ptr %.010.i, i64 1
  %.not.i = icmp eq ptr %10, %1
  br i1 %.not.i, label %_ZN10ODDLParser16lookForNextTokenIcEEPT_S2_S2_.exitthread-pre-split, label %.lr.ph.i, !llvm.loop !8

_ZN10ODDLParser16lookForNextTokenIcEEPT_S2_S2_.exitthread-pre-split: ; preds = %.critedge2.i
  %.pr = load i8, ptr %scevgep.i, align 1
  br label %_ZN10ODDLParser16lookForNextTokenIcEEPT_S2_S2_.exit

_ZN10ODDLParser16lookForNextTokenIcEEPT_S2_S2_.exit: ; preds = %.lr.ph.i, %_ZN10ODDLParser16lookForNextTokenIcEEPT_S2_S2_.exitthread-pre-split
  %11 = phi i8 [ %.pr, %_ZN10ODDLParser16lookForNextTokenIcEEPT_S2_S2_.exitthread-pre-split ], [ %9, %.lr.ph.i ]
  %.0.lcssa.i = phi ptr [ %scevgep.i, %_ZN10ODDLParser16lookForNextTokenIcEEPT_S2_S2_.exitthread-pre-split ], [ %.010.i, %.lr.ph.i ]
  %12 = icmp eq i8 %11, 34
  br i1 %12, label %13, label %35

13:                                               ; preds = %_ZN10ODDLParser16lookForNextTokenIcEEPT_S2_S2_.exit
  %14 = getelementptr inbounds nuw i8, ptr %.0.lcssa.i, i64 1
  %15 = load i8, ptr %14, align 1
  %16 = icmp ne i8 %15, 34
  %17 = icmp ne ptr %14, %1
  %18 = and i1 %17, %16
  br i1 %18, label %.lr.ph, label %._crit_edge

.lr.ph:                                           ; preds = %13, %.lr.ph
  %.032 = phi i64 [ %20, %.lr.ph ], [ 0, %13 ]
  %.131 = phi ptr [ %19, %.lr.ph ], [ %14, %13 ]
  %19 = getelementptr inbounds nuw i8, ptr %.131, i64 1
  %20 = add i64 %.032, 1
  %21 = load i8, ptr %19, align 1
  %22 = icmp ne i8 %21, 34
  %23 = icmp ne ptr %19, %1
  %24 = and i1 %23, %22
  br i1 %24, label %.lr.ph, label %._crit_edge, !llvm.loop !28

._crit_edge:                                      ; preds = %.lr.ph, %13
  %25 = phi ptr [ %.0.lcssa.i, %13 ], [ %.131, %.lr.ph ]
  %.0.lcssa = phi i64 [ 0, %13 ], [ %20, %.lr.ph ]
  %26 = tail call noundef ptr @_ZN10ODDLParser14ValueAllocator13allocPrimDataENS_5Value9ValueTypeEm(i32 noundef 12, i64 noundef %.0.lcssa)
  store ptr %26, ptr %2, align 8
  %27 = getelementptr inbounds nuw i8, ptr %26, i64 16
  %28 = load ptr, ptr %27, align 8
  %29 = tail call ptr @strncpy(ptr noundef %28, ptr noundef nonnull %14, i64 noundef %.0.lcssa) #29
  %30 = load ptr, ptr %2, align 8
  %31 = getelementptr inbounds nuw i8, ptr %30, i64 16
  %32 = load ptr, ptr %31, align 8
  %33 = getelementptr inbounds nuw i8, ptr %32, i64 %.0.lcssa
  store i8 0, ptr %33, align 1
  %34 = getelementptr inbounds nuw i8, ptr %25, i64 2
  br label %35

35:                                               ; preds = %_ZN10ODDLParser16lookForNextTokenIcEEPT_S2_S2_.exit, %._crit_edge, %3
  %.025 = phi ptr [ %0, %3 ], [ %34, %._crit_edge ], [ %.0.lcssa.i, %_ZN10ODDLParser16lookForNextTokenIcEEPT_S2_S2_.exit ]
  ret ptr %.025
}